(dp0
S'bins'
p1
(lp2
(dp3
S'cut'
p4
S'tag_Ele_pt > 35 && abs(tag_sc_eta) < 2.5  && abs(sc_eta)<2.5 && tag_Ele_trigMVA > 0.90 && sqrt( 2*event_met_pfmet*tag_Ele_pt*(1-cos(event_met_pfphi-tag_Ele_phi))) < 60 && sc_et > 5 && sc_abseta >= 0.000000 && sc_abseta < 0.500000 && sc_et >= 75.000000 && sc_et < 100.000000'
p5
sS'name'
p6
S'bin00_sc_abseta_0p00To0p50_sc_et_75p00To100p00'
p7
sS'vars'
p8
(dp9
S'sc_et'
p10
(dp11
S'max'
p12
I100
sS'min'
p13
I75
ssS'sc_abseta'
p14
(dp15
g12
F0.5
sg13
F0.0
sssS'title'
p16
S'; 0.000 < sc_abseta < 0.500; 75.000 < sc_et < 100.000'
p17
sa(dp18
g4
S'tag_Ele_pt > 35 && abs(tag_sc_eta) < 2.5  && abs(sc_eta)<2.5 && tag_Ele_trigMVA > 0.90 && sqrt( 2*event_met_pfmet*tag_Ele_pt*(1-cos(event_met_pfphi-tag_Ele_phi))) < 60 && sc_et > 5 && sc_abseta >= 0.500000 && sc_abseta < 1.000000 && sc_et >= 75.000000 && sc_et < 100.000000'
p19
sg6
S'bin01_sc_abseta_0p50To1p00_sc_et_75p00To100p00'
p20
sg8
(dp21
g10
(dp22
g12
I100
sg13
I75
ssg14
(dp23
g12
F1.0
sg13
F0.5
sssg16
S'; 0.500 < sc_abseta < 1.000; 75.000 < sc_et < 100.000'
p24
sa(dp25
g4
S'tag_Ele_pt > 35 && abs(tag_sc_eta) < 2.5  && abs(sc_eta)<2.5 && tag_Ele_trigMVA > 0.90 && sqrt( 2*event_met_pfmet*tag_Ele_pt*(1-cos(event_met_pfphi-tag_Ele_phi))) < 60 && sc_et > 5 && sc_abseta >= 1.000000 && sc_abseta < 1.444200 && sc_et >= 75.000000 && sc_et < 100.000000'
p26
sg6
S'bin02_sc_abseta_1p00To1p44_sc_et_75p00To100p00'
p27
sg8
(dp28
g10
(dp29
g12
I100
sg13
I75
ssg14
(dp30
g12
F1.4442
sg13
F1.0
sssg16
S'; 1.000 < sc_abseta < 1.444; 75.000 < sc_et < 100.000'
p31
sa(dp32
g4
S'tag_Ele_pt > 35 && abs(tag_sc_eta) < 2.5  && abs(sc_eta)<2.5 && tag_Ele_trigMVA > 0.90 && sqrt( 2*event_met_pfmet*tag_Ele_pt*(1-cos(event_met_pfphi-tag_Ele_phi))) < 60 && sc_et > 5 && sc_abseta >= 1.444200 && sc_abseta < 1.566000 && sc_et >= 75.000000 && sc_et < 100.000000'
p33
sg6
S'bin03_sc_abseta_1p44To1p57_sc_et_75p00To100p00'
p34
sg8
(dp35
g10
(dp36
g12
I100
sg13
I75
ssg14
(dp37
g12
F1.566
sg13
F1.4442
sssg16
S'; 1.444 < sc_abseta < 1.566; 75.000 < sc_et < 100.000'
p38
sa(dp39
g4
S'tag_Ele_pt > 35 && abs(tag_sc_eta) < 2.5  && abs(sc_eta)<2.5 && tag_Ele_trigMVA > 0.90 && sqrt( 2*event_met_pfmet*tag_Ele_pt*(1-cos(event_met_pfphi-tag_Ele_phi))) < 60 && sc_et > 5 && sc_abseta >= 1.566000 && sc_abseta < 2.000000 && sc_et >= 75.000000 && sc_et < 100.000000'
p40
sg6
S'bin04_sc_abseta_1p57To2p00_sc_et_75p00To100p00'
p41
sg8
(dp42
g10
(dp43
g12
I100
sg13
I75
ssg14
(dp44
g12
F2.0
sg13
F1.566
sssg16
S'; 1.566 < sc_abseta < 2.000; 75.000 < sc_et < 100.000'
p45
sa(dp46
g4
S'tag_Ele_pt > 35 && abs(tag_sc_eta) < 2.5  && abs(sc_eta)<2.5 && tag_Ele_trigMVA > 0.90 && sqrt( 2*event_met_pfmet*tag_Ele_pt*(1-cos(event_met_pfphi-tag_Ele_phi))) < 60 && sc_et > 5 && sc_abseta >= 2.000000 && sc_abseta < 2.500000 && sc_et >= 75.000000 && sc_et < 100.000000'
p47
sg6
S'bin05_sc_abseta_2p00To2p50_sc_et_75p00To100p00'
p48
sg8
(dp49
g10
(dp50
g12
I100
sg13
I75
ssg14
(dp51
g12
F2.5
sg13
F2.0
sssg16
S'; 2.000 < sc_abseta < 2.500; 75.000 < sc_et < 100.000'
p52
sa(dp53
g4
S'tag_Ele_pt > 35 && abs(tag_sc_eta) < 2.5  && abs(sc_eta)<2.5 && tag_Ele_trigMVA > 0.90 && sqrt( 2*event_met_pfmet*tag_Ele_pt*(1-cos(event_met_pfphi-tag_Ele_phi))) < 60 && sc_et > 5 && sc_abseta >= 0.000000 && sc_abseta < 0.500000 && sc_et >= 100.000000 && sc_et < 500.000000'
p54
sg6
S'bin06_sc_abseta_0p00To0p50_sc_et_100p00To500p00'
p55
sg8
(dp56
g10
(dp57
g12
I500
sg13
I100
ssg14
(dp58
g12
F0.5
sg13
F0.0
sssg16
S'; 0.000 < sc_abseta < 0.500; 100.000 < sc_et < 500.000'
p59
sa(dp60
g4
S'tag_Ele_pt > 35 && abs(tag_sc_eta) < 2.5  && abs(sc_eta)<2.5 && tag_Ele_trigMVA > 0.90 && sqrt( 2*event_met_pfmet*tag_Ele_pt*(1-cos(event_met_pfphi-tag_Ele_phi))) < 60 && sc_et > 5 && sc_abseta >= 0.500000 && sc_abseta < 1.000000 && sc_et >= 100.000000 && sc_et < 500.000000'
p61
sg6
S'bin07_sc_abseta_0p50To1p00_sc_et_100p00To500p00'
p62
sg8
(dp63
g10
(dp64
g12
I500
sg13
I100
ssg14
(dp65
g12
F1.0
sg13
F0.5
sssg16
S'; 0.500 < sc_abseta < 1.000; 100.000 < sc_et < 500.000'
p66
sa(dp67
g4
S'tag_Ele_pt > 35 && abs(tag_sc_eta) < 2.5  && abs(sc_eta)<2.5 && tag_Ele_trigMVA > 0.90 && sqrt( 2*event_met_pfmet*tag_Ele_pt*(1-cos(event_met_pfphi-tag_Ele_phi))) < 60 && sc_et > 5 && sc_abseta >= 1.000000 && sc_abseta < 1.444200 && sc_et >= 100.000000 && sc_et < 500.000000'
p68
sg6
S'bin08_sc_abseta_1p00To1p44_sc_et_100p00To500p00'
p69
sg8
(dp70
g10
(dp71
g12
I500
sg13
I100
ssg14
(dp72
g12
F1.4442
sg13
F1.0
sssg16
S'; 1.000 < sc_abseta < 1.444; 100.000 < sc_et < 500.000'
p73
sa(dp74
g4
S'tag_Ele_pt > 35 && abs(tag_sc_eta) < 2.5  && abs(sc_eta)<2.5 && tag_Ele_trigMVA > 0.90 && sqrt( 2*event_met_pfmet*tag_Ele_pt*(1-cos(event_met_pfphi-tag_Ele_phi))) < 60 && sc_et > 5 && sc_abseta >= 1.444200 && sc_abseta < 1.566000 && sc_et >= 100.000000 && sc_et < 500.000000'
p75
sg6
S'bin09_sc_abseta_1p44To1p57_sc_et_100p00To500p00'
p76
sg8
(dp77
g10
(dp78
g12
I500
sg13
I100
ssg14
(dp79
g12
F1.566
sg13
F1.4442
sssg16
S'; 1.444 < sc_abseta < 1.566; 100.000 < sc_et < 500.000'
p80
sa(dp81
g4
S'tag_Ele_pt > 35 && abs(tag_sc_eta) < 2.5  && abs(sc_eta)<2.5 && tag_Ele_trigMVA > 0.90 && sqrt( 2*event_met_pfmet*tag_Ele_pt*(1-cos(event_met_pfphi-tag_Ele_phi))) < 60 && sc_et > 5 && sc_abseta >= 1.566000 && sc_abseta < 2.000000 && sc_et >= 100.000000 && sc_et < 500.000000'
p82
sg6
S'bin10_sc_abseta_1p57To2p00_sc_et_100p00To500p00'
p83
sg8
(dp84
g10
(dp85
g12
I500
sg13
I100
ssg14
(dp86
g12
F2.0
sg13
F1.566
sssg16
S'; 1.566 < sc_abseta < 2.000; 100.000 < sc_et < 500.000'
p87
sa(dp88
g4
S'tag_Ele_pt > 35 && abs(tag_sc_eta) < 2.5  && abs(sc_eta)<2.5 && tag_Ele_trigMVA > 0.90 && sqrt( 2*event_met_pfmet*tag_Ele_pt*(1-cos(event_met_pfphi-tag_Ele_phi))) < 60 && sc_et > 5 && sc_abseta >= 2.000000 && sc_abseta < 2.500000 && sc_et >= 100.000000 && sc_et < 500.000000'
p89
sg6
S'bin11_sc_abseta_2p00To2p50_sc_et_100p00To500p00'
p90
sg8
(dp91
g10
(dp92
g12
I500
sg13
I100
ssg14
(dp93
g12
F2.5
sg13
F2.0
sssg16
S'; 2.000 < sc_abseta < 2.500; 100.000 < sc_et < 500.000'
p94
sasg8
(lp95
g14
ag10
as.