(dp0
S'bins'
p1
(lp2
(dp3
S'cut'
p4
S'tag_Ele_pt > 35 && abs(tag_sc_eta) < 1.4442 && abs(sc_eta)<2.5 && tag_Ele_trigMVA > 0.96 && sqrt( 2*event_met_pfmet*tag_Ele_pt*(1-cos(event_met_pfphi-tag_Ele_phi))) < 45 && sc_et > 10 && sc_abseta >= 0.000000 && sc_abseta < 1.000000 && sc_et >= 10.000000 && sc_et < 20.000000'
p5
sS'name'
p6
S'bin00_sc_abseta_0p00To1p00_sc_et_10p00To20p00'
p7
sS'vars'
p8
(dp9
S'sc_et'
p10
(dp11
S'max'
p12
F20.0
sS'min'
p13
F10.0
ssS'sc_abseta'
p14
(dp15
g12
F1.0
sg13
F0.0
sssS'title'
p16
S'; 0.000 < sc_abseta < 1.000; 10.000 < sc_et < 20.000'
p17
sa(dp18
g4
S'tag_Ele_pt > 35 && abs(tag_sc_eta) < 1.4442 && abs(sc_eta)<2.5 && tag_Ele_trigMVA > 0.96 && sqrt( 2*event_met_pfmet*tag_Ele_pt*(1-cos(event_met_pfphi-tag_Ele_phi))) < 45 && sc_et > 10 && sc_abseta >= 1.000000 && sc_abseta < 1.444200 && sc_et >= 10.000000 && sc_et < 20.000000'
p19
sg6
S'bin01_sc_abseta_1p00To1p44_sc_et_10p00To20p00'
p20
sg8
(dp21
g10
(dp22
g12
F20.0
sg13
F10.0
ssg14
(dp23
g12
F1.4442
sg13
F1.0
sssg16
S'; 1.000 < sc_abseta < 1.444; 10.000 < sc_et < 20.000'
p24
sa(dp25
g4
S'tag_Ele_pt > 35 && abs(tag_sc_eta) < 1.4442 && abs(sc_eta)<2.5 && tag_Ele_trigMVA > 0.96 && sqrt( 2*event_met_pfmet*tag_Ele_pt*(1-cos(event_met_pfphi-tag_Ele_phi))) < 45 && sc_et > 10 && sc_abseta >= 1.444200 && sc_abseta < 1.566000 && sc_et >= 10.000000 && sc_et < 20.000000'
p26
sg6
S'bin02_sc_abseta_1p44To1p57_sc_et_10p00To20p00'
p27
sg8
(dp28
g10
(dp29
g12
F20.0
sg13
F10.0
ssg14
(dp30
g12
F1.566
sg13
F1.4442
sssg16
S'; 1.444 < sc_abseta < 1.566; 10.000 < sc_et < 20.000'
p31
sa(dp32
g4
S'tag_Ele_pt > 35 && abs(tag_sc_eta) < 1.4442 && abs(sc_eta)<2.5 && tag_Ele_trigMVA > 0.96 && sqrt( 2*event_met_pfmet*tag_Ele_pt*(1-cos(event_met_pfphi-tag_Ele_phi))) < 45 && sc_et > 10 && sc_abseta >= 1.566000 && sc_abseta < 2.000000 && sc_et >= 10.000000 && sc_et < 20.000000'
p33
sg6
S'bin03_sc_abseta_1p57To2p00_sc_et_10p00To20p00'
p34
sg8
(dp35
g10
(dp36
g12
F20.0
sg13
F10.0
ssg14
(dp37
g12
F2.0
sg13
F1.566
sssg16
S'; 1.566 < sc_abseta < 2.000; 10.000 < sc_et < 20.000'
p38
sa(dp39
g4
S'tag_Ele_pt > 35 && abs(tag_sc_eta) < 1.4442 && abs(sc_eta)<2.5 && tag_Ele_trigMVA > 0.96 && sqrt( 2*event_met_pfmet*tag_Ele_pt*(1-cos(event_met_pfphi-tag_Ele_phi))) < 45 && sc_et > 10 && sc_abseta >= 2.000000 && sc_abseta < 2.500000 && sc_et >= 10.000000 && sc_et < 20.000000'
p40
sg6
S'bin04_sc_abseta_2p00To2p50_sc_et_10p00To20p00'
p41
sg8
(dp42
g10
(dp43
g12
F20.0
sg13
F10.0
ssg14
(dp44
g12
F2.5
sg13
F2.0
sssg16
S'; 2.000 < sc_abseta < 2.500; 10.000 < sc_et < 20.000'
p45
sasg8
(lp46
g14
ag10
as.