(dp0
S'bins'
p1
(lp2
(dp3
S'cut'
p4
S'tag_Ele_pt > 35 && abs(tag_sc_eta) < 2.5  && abs(sc_eta)<2.5 && tag_Ele_trigMVA > 0.90 && sqrt( 2*event_met_pfmet*tag_Ele_pt*(1-cos(event_met_pfphi-tag_Ele_phi))) < 60 && sc_et > 20 && sc_eta >= -2.500000 && sc_eta < -2.000000 && sc_et >= 20.000000 && sc_et < 45.000000'
p5
sS'name'
p6
S'bin00_sc_eta_m2p50Tom2p00_sc_et_20p00To45p00'
p7
sS'vars'
p8
(dp9
S'sc_et'
p10
(dp11
S'max'
p12
I45
sS'min'
p13
F20.0
ssS'sc_eta'
p14
(dp15
g12
F-2.0
sg13
F-2.5
sssS'title'
p16
S'; -2.500 < sc_eta < -2.000; 20.000 < sc_et < 45.000'
p17
sa(dp18
g4
S'tag_Ele_pt > 35 && abs(tag_sc_eta) < 2.5  && abs(sc_eta)<2.5 && tag_Ele_trigMVA > 0.90 && sqrt( 2*event_met_pfmet*tag_Ele_pt*(1-cos(event_met_pfphi-tag_Ele_phi))) < 60 && sc_et > 20 && sc_eta >= -2.000000 && sc_eta < -1.566000 && sc_et >= 20.000000 && sc_et < 45.000000'
p19
sg6
S'bin01_sc_eta_m2p00Tom1p57_sc_et_20p00To45p00'
p20
sg8
(dp21
g10
(dp22
g12
I45
sg13
F20.0
ssg14
(dp23
g12
F-1.566
sg13
F-2.0
sssg16
S'; -2.000 < sc_eta < -1.566; 20.000 < sc_et < 45.000'
p24
sa(dp25
g4
S'tag_Ele_pt > 35 && abs(tag_sc_eta) < 2.5  && abs(sc_eta)<2.5 && tag_Ele_trigMVA > 0.90 && sqrt( 2*event_met_pfmet*tag_Ele_pt*(1-cos(event_met_pfphi-tag_Ele_phi))) < 60 && sc_et > 20 && sc_eta >= -1.566000 && sc_eta < -1.444000 && sc_et >= 20.000000 && sc_et < 45.000000'
p26
sg6
S'bin02_sc_eta_m1p57Tom1p44_sc_et_20p00To45p00'
p27
sg8
(dp28
g10
(dp29
g12
I45
sg13
F20.0
ssg14
(dp30
g12
F-1.444
sg13
F-1.566
sssg16
S'; -1.566 < sc_eta < -1.444; 20.000 < sc_et < 45.000'
p31
sa(dp32
g4
S'tag_Ele_pt > 35 && abs(tag_sc_eta) < 2.5  && abs(sc_eta)<2.5 && tag_Ele_trigMVA > 0.90 && sqrt( 2*event_met_pfmet*tag_Ele_pt*(1-cos(event_met_pfphi-tag_Ele_phi))) < 60 && sc_et > 20 && sc_eta >= -1.444000 && sc_eta < -1.000000 && sc_et >= 20.000000 && sc_et < 45.000000'
p33
sg6
S'bin03_sc_eta_m1p44Tom1p00_sc_et_20p00To45p00'
p34
sg8
(dp35
g10
(dp36
g12
I45
sg13
F20.0
ssg14
(dp37
g12
F-1.0
sg13
F-1.444
sssg16
S'; -1.444 < sc_eta < -1.000; 20.000 < sc_et < 45.000'
p38
sa(dp39
g4
S'tag_Ele_pt > 35 && abs(tag_sc_eta) < 2.5  && abs(sc_eta)<2.5 && tag_Ele_trigMVA > 0.90 && sqrt( 2*event_met_pfmet*tag_Ele_pt*(1-cos(event_met_pfphi-tag_Ele_phi))) < 60 && sc_et > 20 && sc_eta >= -1.000000 && sc_eta < -0.500000 && sc_et >= 20.000000 && sc_et < 45.000000'
p40
sg6
S'bin04_sc_eta_m1p00Tom0p50_sc_et_20p00To45p00'
p41
sg8
(dp42
g10
(dp43
g12
I45
sg13
F20.0
ssg14
(dp44
g12
F-0.5
sg13
F-1.0
sssg16
S'; -1.000 < sc_eta < -0.500; 20.000 < sc_et < 45.000'
p45
sa(dp46
g4
S'tag_Ele_pt > 35 && abs(tag_sc_eta) < 2.5  && abs(sc_eta)<2.5 && tag_Ele_trigMVA > 0.90 && sqrt( 2*event_met_pfmet*tag_Ele_pt*(1-cos(event_met_pfphi-tag_Ele_phi))) < 60 && sc_et > 20 && sc_eta >= -0.500000 && sc_eta < 0.000000 && sc_et >= 20.000000 && sc_et < 45.000000'
p47
sg6
S'bin05_sc_eta_m0p50To0p00_sc_et_20p00To45p00'
p48
sg8
(dp49
g10
(dp50
g12
I45
sg13
F20.0
ssg14
(dp51
g12
F0.0
sg13
F-0.5
sssg16
S'; -0.500 < sc_eta < 0.000; 20.000 < sc_et < 45.000'
p52
sa(dp53
g4
S'tag_Ele_pt > 35 && abs(tag_sc_eta) < 2.5  && abs(sc_eta)<2.5 && tag_Ele_trigMVA > 0.90 && sqrt( 2*event_met_pfmet*tag_Ele_pt*(1-cos(event_met_pfphi-tag_Ele_phi))) < 60 && sc_et > 20 && sc_eta >= 0.000000 && sc_eta < 0.500000 && sc_et >= 20.000000 && sc_et < 45.000000'
p54
sg6
S'bin06_sc_eta_0p00To0p50_sc_et_20p00To45p00'
p55
sg8
(dp56
g10
(dp57
g12
I45
sg13
F20.0
ssg14
(dp58
g12
F0.5
sg13
F0.0
sssg16
S'; 0.000 < sc_eta < 0.500; 20.000 < sc_et < 45.000'
p59
sa(dp60
g4
S'tag_Ele_pt > 35 && abs(tag_sc_eta) < 2.5  && abs(sc_eta)<2.5 && tag_Ele_trigMVA > 0.90 && sqrt( 2*event_met_pfmet*tag_Ele_pt*(1-cos(event_met_pfphi-tag_Ele_phi))) < 60 && sc_et > 20 && sc_eta >= 0.500000 && sc_eta < 1.000000 && sc_et >= 20.000000 && sc_et < 45.000000'
p61
sg6
S'bin07_sc_eta_0p50To1p00_sc_et_20p00To45p00'
p62
sg8
(dp63
g10
(dp64
g12
I45
sg13
F20.0
ssg14
(dp65
g12
F1.0
sg13
F0.5
sssg16
S'; 0.500 < sc_eta < 1.000; 20.000 < sc_et < 45.000'
p66
sa(dp67
g4
S'tag_Ele_pt > 35 && abs(tag_sc_eta) < 2.5  && abs(sc_eta)<2.5 && tag_Ele_trigMVA > 0.90 && sqrt( 2*event_met_pfmet*tag_Ele_pt*(1-cos(event_met_pfphi-tag_Ele_phi))) < 60 && sc_et > 20 && sc_eta >= 1.000000 && sc_eta < 1.444000 && sc_et >= 20.000000 && sc_et < 45.000000'
p68
sg6
S'bin08_sc_eta_1p00To1p44_sc_et_20p00To45p00'
p69
sg8
(dp70
g10
(dp71
g12
I45
sg13
F20.0
ssg14
(dp72
g12
F1.444
sg13
F1.0
sssg16
S'; 1.000 < sc_eta < 1.444; 20.000 < sc_et < 45.000'
p73
sa(dp74
g4
S'tag_Ele_pt > 35 && abs(tag_sc_eta) < 2.5  && abs(sc_eta)<2.5 && tag_Ele_trigMVA > 0.90 && sqrt( 2*event_met_pfmet*tag_Ele_pt*(1-cos(event_met_pfphi-tag_Ele_phi))) < 60 && sc_et > 20 && sc_eta >= 1.444000 && sc_eta < 1.566000 && sc_et >= 20.000000 && sc_et < 45.000000'
p75
sg6
S'bin09_sc_eta_1p44To1p57_sc_et_20p00To45p00'
p76
sg8
(dp77
g10
(dp78
g12
I45
sg13
F20.0
ssg14
(dp79
g12
F1.566
sg13
F1.444
sssg16
S'; 1.444 < sc_eta < 1.566; 20.000 < sc_et < 45.000'
p80
sa(dp81
g4
S'tag_Ele_pt > 35 && abs(tag_sc_eta) < 2.5  && abs(sc_eta)<2.5 && tag_Ele_trigMVA > 0.90 && sqrt( 2*event_met_pfmet*tag_Ele_pt*(1-cos(event_met_pfphi-tag_Ele_phi))) < 60 && sc_et > 20 && sc_eta >= 1.566000 && sc_eta < 2.000000 && sc_et >= 20.000000 && sc_et < 45.000000'
p82
sg6
S'bin10_sc_eta_1p57To2p00_sc_et_20p00To45p00'
p83
sg8
(dp84
g10
(dp85
g12
I45
sg13
F20.0
ssg14
(dp86
g12
F2.0
sg13
F1.566
sssg16
S'; 1.566 < sc_eta < 2.000; 20.000 < sc_et < 45.000'
p87
sa(dp88
g4
S'tag_Ele_pt > 35 && abs(tag_sc_eta) < 2.5  && abs(sc_eta)<2.5 && tag_Ele_trigMVA > 0.90 && sqrt( 2*event_met_pfmet*tag_Ele_pt*(1-cos(event_met_pfphi-tag_Ele_phi))) < 60 && sc_et > 20 && sc_eta >= 2.000000 && sc_eta < 2.500000 && sc_et >= 20.000000 && sc_et < 45.000000'
p89
sg6
S'bin11_sc_eta_2p00To2p50_sc_et_20p00To45p00'
p90
sg8
(dp91
g10
(dp92
g12
I45
sg13
F20.0
ssg14
(dp93
g12
F2.5
sg13
F2.0
sssg16
S'; 2.000 < sc_eta < 2.500; 20.000 < sc_et < 45.000'
p94
sa(dp95
g4
S'tag_Ele_pt > 35 && abs(tag_sc_eta) < 2.5  && abs(sc_eta)<2.5 && tag_Ele_trigMVA > 0.90 && sqrt( 2*event_met_pfmet*tag_Ele_pt*(1-cos(event_met_pfphi-tag_Ele_phi))) < 60 && sc_et > 20 && sc_eta >= -2.500000 && sc_eta < -2.000000 && sc_et >= 45.000000 && sc_et < 75.000000'
p96
sg6
S'bin12_sc_eta_m2p50Tom2p00_sc_et_45p00To75p00'
p97
sg8
(dp98
g10
(dp99
g12
I75
sg13
I45
ssg14
(dp100
g12
F-2.0
sg13
F-2.5
sssg16
S'; -2.500 < sc_eta < -2.000; 45.000 < sc_et < 75.000'
p101
sa(dp102
g4
S'tag_Ele_pt > 35 && abs(tag_sc_eta) < 2.5  && abs(sc_eta)<2.5 && tag_Ele_trigMVA > 0.90 && sqrt( 2*event_met_pfmet*tag_Ele_pt*(1-cos(event_met_pfphi-tag_Ele_phi))) < 60 && sc_et > 20 && sc_eta >= -2.000000 && sc_eta < -1.566000 && sc_et >= 45.000000 && sc_et < 75.000000'
p103
sg6
S'bin13_sc_eta_m2p00Tom1p57_sc_et_45p00To75p00'
p104
sg8
(dp105
g10
(dp106
g12
I75
sg13
I45
ssg14
(dp107
g12
F-1.566
sg13
F-2.0
sssg16
S'; -2.000 < sc_eta < -1.566; 45.000 < sc_et < 75.000'
p108
sa(dp109
g4
S'tag_Ele_pt > 35 && abs(tag_sc_eta) < 2.5  && abs(sc_eta)<2.5 && tag_Ele_trigMVA > 0.90 && sqrt( 2*event_met_pfmet*tag_Ele_pt*(1-cos(event_met_pfphi-tag_Ele_phi))) < 60 && sc_et > 20 && sc_eta >= -1.566000 && sc_eta < -1.444000 && sc_et >= 45.000000 && sc_et < 75.000000'
p110
sg6
S'bin14_sc_eta_m1p57Tom1p44_sc_et_45p00To75p00'
p111
sg8
(dp112
g10
(dp113
g12
I75
sg13
I45
ssg14
(dp114
g12
F-1.444
sg13
F-1.566
sssg16
S'; -1.566 < sc_eta < -1.444; 45.000 < sc_et < 75.000'
p115
sa(dp116
g4
S'tag_Ele_pt > 35 && abs(tag_sc_eta) < 2.5  && abs(sc_eta)<2.5 && tag_Ele_trigMVA > 0.90 && sqrt( 2*event_met_pfmet*tag_Ele_pt*(1-cos(event_met_pfphi-tag_Ele_phi))) < 60 && sc_et > 20 && sc_eta >= -1.444000 && sc_eta < -1.000000 && sc_et >= 45.000000 && sc_et < 75.000000'
p117
sg6
S'bin15_sc_eta_m1p44Tom1p00_sc_et_45p00To75p00'
p118
sg8
(dp119
g10
(dp120
g12
I75
sg13
I45
ssg14
(dp121
g12
F-1.0
sg13
F-1.444
sssg16
S'; -1.444 < sc_eta < -1.000; 45.000 < sc_et < 75.000'
p122
sa(dp123
g4
S'tag_Ele_pt > 35 && abs(tag_sc_eta) < 2.5  && abs(sc_eta)<2.5 && tag_Ele_trigMVA > 0.90 && sqrt( 2*event_met_pfmet*tag_Ele_pt*(1-cos(event_met_pfphi-tag_Ele_phi))) < 60 && sc_et > 20 && sc_eta >= -1.000000 && sc_eta < -0.500000 && sc_et >= 45.000000 && sc_et < 75.000000'
p124
sg6
S'bin16_sc_eta_m1p00Tom0p50_sc_et_45p00To75p00'
p125
sg8
(dp126
g10
(dp127
g12
I75
sg13
I45
ssg14
(dp128
g12
F-0.5
sg13
F-1.0
sssg16
S'; -1.000 < sc_eta < -0.500; 45.000 < sc_et < 75.000'
p129
sa(dp130
g4
S'tag_Ele_pt > 35 && abs(tag_sc_eta) < 2.5  && abs(sc_eta)<2.5 && tag_Ele_trigMVA > 0.90 && sqrt( 2*event_met_pfmet*tag_Ele_pt*(1-cos(event_met_pfphi-tag_Ele_phi))) < 60 && sc_et > 20 && sc_eta >= -0.500000 && sc_eta < 0.000000 && sc_et >= 45.000000 && sc_et < 75.000000'
p131
sg6
S'bin17_sc_eta_m0p50To0p00_sc_et_45p00To75p00'
p132
sg8
(dp133
g10
(dp134
g12
I75
sg13
I45
ssg14
(dp135
g12
F0.0
sg13
F-0.5
sssg16
S'; -0.500 < sc_eta < 0.000; 45.000 < sc_et < 75.000'
p136
sa(dp137
g4
S'tag_Ele_pt > 35 && abs(tag_sc_eta) < 2.5  && abs(sc_eta)<2.5 && tag_Ele_trigMVA > 0.90 && sqrt( 2*event_met_pfmet*tag_Ele_pt*(1-cos(event_met_pfphi-tag_Ele_phi))) < 60 && sc_et > 20 && sc_eta >= 0.000000 && sc_eta < 0.500000 && sc_et >= 45.000000 && sc_et < 75.000000'
p138
sg6
S'bin18_sc_eta_0p00To0p50_sc_et_45p00To75p00'
p139
sg8
(dp140
g10
(dp141
g12
I75
sg13
I45
ssg14
(dp142
g12
F0.5
sg13
F0.0
sssg16
S'; 0.000 < sc_eta < 0.500; 45.000 < sc_et < 75.000'
p143
sa(dp144
g4
S'tag_Ele_pt > 35 && abs(tag_sc_eta) < 2.5  && abs(sc_eta)<2.5 && tag_Ele_trigMVA > 0.90 && sqrt( 2*event_met_pfmet*tag_Ele_pt*(1-cos(event_met_pfphi-tag_Ele_phi))) < 60 && sc_et > 20 && sc_eta >= 0.500000 && sc_eta < 1.000000 && sc_et >= 45.000000 && sc_et < 75.000000'
p145
sg6
S'bin19_sc_eta_0p50To1p00_sc_et_45p00To75p00'
p146
sg8
(dp147
g10
(dp148
g12
I75
sg13
I45
ssg14
(dp149
g12
F1.0
sg13
F0.5
sssg16
S'; 0.500 < sc_eta < 1.000; 45.000 < sc_et < 75.000'
p150
sa(dp151
g4
S'tag_Ele_pt > 35 && abs(tag_sc_eta) < 2.5  && abs(sc_eta)<2.5 && tag_Ele_trigMVA > 0.90 && sqrt( 2*event_met_pfmet*tag_Ele_pt*(1-cos(event_met_pfphi-tag_Ele_phi))) < 60 && sc_et > 20 && sc_eta >= 1.000000 && sc_eta < 1.444000 && sc_et >= 45.000000 && sc_et < 75.000000'
p152
sg6
S'bin20_sc_eta_1p00To1p44_sc_et_45p00To75p00'
p153
sg8
(dp154
g10
(dp155
g12
I75
sg13
I45
ssg14
(dp156
g12
F1.444
sg13
F1.0
sssg16
S'; 1.000 < sc_eta < 1.444; 45.000 < sc_et < 75.000'
p157
sa(dp158
g4
S'tag_Ele_pt > 35 && abs(tag_sc_eta) < 2.5  && abs(sc_eta)<2.5 && tag_Ele_trigMVA > 0.90 && sqrt( 2*event_met_pfmet*tag_Ele_pt*(1-cos(event_met_pfphi-tag_Ele_phi))) < 60 && sc_et > 20 && sc_eta >= 1.444000 && sc_eta < 1.566000 && sc_et >= 45.000000 && sc_et < 75.000000'
p159
sg6
S'bin21_sc_eta_1p44To1p57_sc_et_45p00To75p00'
p160
sg8
(dp161
g10
(dp162
g12
I75
sg13
I45
ssg14
(dp163
g12
F1.566
sg13
F1.444
sssg16
S'; 1.444 < sc_eta < 1.566; 45.000 < sc_et < 75.000'
p164
sa(dp165
g4
S'tag_Ele_pt > 35 && abs(tag_sc_eta) < 2.5  && abs(sc_eta)<2.5 && tag_Ele_trigMVA > 0.90 && sqrt( 2*event_met_pfmet*tag_Ele_pt*(1-cos(event_met_pfphi-tag_Ele_phi))) < 60 && sc_et > 20 && sc_eta >= 1.566000 && sc_eta < 2.000000 && sc_et >= 45.000000 && sc_et < 75.000000'
p166
sg6
S'bin22_sc_eta_1p57To2p00_sc_et_45p00To75p00'
p167
sg8
(dp168
g10
(dp169
g12
I75
sg13
I45
ssg14
(dp170
g12
F2.0
sg13
F1.566
sssg16
S'; 1.566 < sc_eta < 2.000; 45.000 < sc_et < 75.000'
p171
sa(dp172
g4
S'tag_Ele_pt > 35 && abs(tag_sc_eta) < 2.5  && abs(sc_eta)<2.5 && tag_Ele_trigMVA > 0.90 && sqrt( 2*event_met_pfmet*tag_Ele_pt*(1-cos(event_met_pfphi-tag_Ele_phi))) < 60 && sc_et > 20 && sc_eta >= 2.000000 && sc_eta < 2.500000 && sc_et >= 45.000000 && sc_et < 75.000000'
p173
sg6
S'bin23_sc_eta_2p00To2p50_sc_et_45p00To75p00'
p174
sg8
(dp175
g10
(dp176
g12
I75
sg13
I45
ssg14
(dp177
g12
F2.5
sg13
F2.0
sssg16
S'; 2.000 < sc_eta < 2.500; 45.000 < sc_et < 75.000'
p178
sa(dp179
g4
S'tag_Ele_pt > 35 && abs(tag_sc_eta) < 2.5  && abs(sc_eta)<2.5 && tag_Ele_trigMVA > 0.90 && sqrt( 2*event_met_pfmet*tag_Ele_pt*(1-cos(event_met_pfphi-tag_Ele_phi))) < 60 && sc_et > 20 && sc_eta >= -2.500000 && sc_eta < -2.000000 && sc_et >= 75.000000 && sc_et < 100.000000'
p180
sg6
S'bin24_sc_eta_m2p50Tom2p00_sc_et_75p00To100p00'
p181
sg8
(dp182
g10
(dp183
g12
I100
sg13
I75
ssg14
(dp184
g12
F-2.0
sg13
F-2.5
sssg16
S'; -2.500 < sc_eta < -2.000; 75.000 < sc_et < 100.000'
p185
sa(dp186
g4
S'tag_Ele_pt > 35 && abs(tag_sc_eta) < 2.5  && abs(sc_eta)<2.5 && tag_Ele_trigMVA > 0.90 && sqrt( 2*event_met_pfmet*tag_Ele_pt*(1-cos(event_met_pfphi-tag_Ele_phi))) < 60 && sc_et > 20 && sc_eta >= -2.000000 && sc_eta < -1.566000 && sc_et >= 75.000000 && sc_et < 100.000000'
p187
sg6
S'bin25_sc_eta_m2p00Tom1p57_sc_et_75p00To100p00'
p188
sg8
(dp189
g10
(dp190
g12
I100
sg13
I75
ssg14
(dp191
g12
F-1.566
sg13
F-2.0
sssg16
S'; -2.000 < sc_eta < -1.566; 75.000 < sc_et < 100.000'
p192
sa(dp193
g4
S'tag_Ele_pt > 35 && abs(tag_sc_eta) < 2.5  && abs(sc_eta)<2.5 && tag_Ele_trigMVA > 0.90 && sqrt( 2*event_met_pfmet*tag_Ele_pt*(1-cos(event_met_pfphi-tag_Ele_phi))) < 60 && sc_et > 20 && sc_eta >= -1.566000 && sc_eta < -1.444000 && sc_et >= 75.000000 && sc_et < 100.000000'
p194
sg6
S'bin26_sc_eta_m1p57Tom1p44_sc_et_75p00To100p00'
p195
sg8
(dp196
g10
(dp197
g12
I100
sg13
I75
ssg14
(dp198
g12
F-1.444
sg13
F-1.566
sssg16
S'; -1.566 < sc_eta < -1.444; 75.000 < sc_et < 100.000'
p199
sa(dp200
g4
S'tag_Ele_pt > 35 && abs(tag_sc_eta) < 2.5  && abs(sc_eta)<2.5 && tag_Ele_trigMVA > 0.90 && sqrt( 2*event_met_pfmet*tag_Ele_pt*(1-cos(event_met_pfphi-tag_Ele_phi))) < 60 && sc_et > 20 && sc_eta >= -1.444000 && sc_eta < -1.000000 && sc_et >= 75.000000 && sc_et < 100.000000'
p201
sg6
S'bin27_sc_eta_m1p44Tom1p00_sc_et_75p00To100p00'
p202
sg8
(dp203
g10
(dp204
g12
I100
sg13
I75
ssg14
(dp205
g12
F-1.0
sg13
F-1.444
sssg16
S'; -1.444 < sc_eta < -1.000; 75.000 < sc_et < 100.000'
p206
sa(dp207
g4
S'tag_Ele_pt > 35 && abs(tag_sc_eta) < 2.5  && abs(sc_eta)<2.5 && tag_Ele_trigMVA > 0.90 && sqrt( 2*event_met_pfmet*tag_Ele_pt*(1-cos(event_met_pfphi-tag_Ele_phi))) < 60 && sc_et > 20 && sc_eta >= -1.000000 && sc_eta < -0.500000 && sc_et >= 75.000000 && sc_et < 100.000000'
p208
sg6
S'bin28_sc_eta_m1p00Tom0p50_sc_et_75p00To100p00'
p209
sg8
(dp210
g10
(dp211
g12
I100
sg13
I75
ssg14
(dp212
g12
F-0.5
sg13
F-1.0
sssg16
S'; -1.000 < sc_eta < -0.500; 75.000 < sc_et < 100.000'
p213
sa(dp214
g4
S'tag_Ele_pt > 35 && abs(tag_sc_eta) < 2.5  && abs(sc_eta)<2.5 && tag_Ele_trigMVA > 0.90 && sqrt( 2*event_met_pfmet*tag_Ele_pt*(1-cos(event_met_pfphi-tag_Ele_phi))) < 60 && sc_et > 20 && sc_eta >= -0.500000 && sc_eta < 0.000000 && sc_et >= 75.000000 && sc_et < 100.000000'
p215
sg6
S'bin29_sc_eta_m0p50To0p00_sc_et_75p00To100p00'
p216
sg8
(dp217
g10
(dp218
g12
I100
sg13
I75
ssg14
(dp219
g12
F0.0
sg13
F-0.5
sssg16
S'; -0.500 < sc_eta < 0.000; 75.000 < sc_et < 100.000'
p220
sa(dp221
g4
S'tag_Ele_pt > 35 && abs(tag_sc_eta) < 2.5  && abs(sc_eta)<2.5 && tag_Ele_trigMVA > 0.90 && sqrt( 2*event_met_pfmet*tag_Ele_pt*(1-cos(event_met_pfphi-tag_Ele_phi))) < 60 && sc_et > 20 && sc_eta >= 0.000000 && sc_eta < 0.500000 && sc_et >= 75.000000 && sc_et < 100.000000'
p222
sg6
S'bin30_sc_eta_0p00To0p50_sc_et_75p00To100p00'
p223
sg8
(dp224
g10
(dp225
g12
I100
sg13
I75
ssg14
(dp226
g12
F0.5
sg13
F0.0
sssg16
S'; 0.000 < sc_eta < 0.500; 75.000 < sc_et < 100.000'
p227
sa(dp228
g4
S'tag_Ele_pt > 35 && abs(tag_sc_eta) < 2.5  && abs(sc_eta)<2.5 && tag_Ele_trigMVA > 0.90 && sqrt( 2*event_met_pfmet*tag_Ele_pt*(1-cos(event_met_pfphi-tag_Ele_phi))) < 60 && sc_et > 20 && sc_eta >= 0.500000 && sc_eta < 1.000000 && sc_et >= 75.000000 && sc_et < 100.000000'
p229
sg6
S'bin31_sc_eta_0p50To1p00_sc_et_75p00To100p00'
p230
sg8
(dp231
g10
(dp232
g12
I100
sg13
I75
ssg14
(dp233
g12
F1.0
sg13
F0.5
sssg16
S'; 0.500 < sc_eta < 1.000; 75.000 < sc_et < 100.000'
p234
sa(dp235
g4
S'tag_Ele_pt > 35 && abs(tag_sc_eta) < 2.5  && abs(sc_eta)<2.5 && tag_Ele_trigMVA > 0.90 && sqrt( 2*event_met_pfmet*tag_Ele_pt*(1-cos(event_met_pfphi-tag_Ele_phi))) < 60 && sc_et > 20 && sc_eta >= 1.000000 && sc_eta < 1.444000 && sc_et >= 75.000000 && sc_et < 100.000000'
p236
sg6
S'bin32_sc_eta_1p00To1p44_sc_et_75p00To100p00'
p237
sg8
(dp238
g10
(dp239
g12
I100
sg13
I75
ssg14
(dp240
g12
F1.444
sg13
F1.0
sssg16
S'; 1.000 < sc_eta < 1.444; 75.000 < sc_et < 100.000'
p241
sa(dp242
g4
S'tag_Ele_pt > 35 && abs(tag_sc_eta) < 2.5  && abs(sc_eta)<2.5 && tag_Ele_trigMVA > 0.90 && sqrt( 2*event_met_pfmet*tag_Ele_pt*(1-cos(event_met_pfphi-tag_Ele_phi))) < 60 && sc_et > 20 && sc_eta >= 1.444000 && sc_eta < 1.566000 && sc_et >= 75.000000 && sc_et < 100.000000'
p243
sg6
S'bin33_sc_eta_1p44To1p57_sc_et_75p00To100p00'
p244
sg8
(dp245
g10
(dp246
g12
I100
sg13
I75
ssg14
(dp247
g12
F1.566
sg13
F1.444
sssg16
S'; 1.444 < sc_eta < 1.566; 75.000 < sc_et < 100.000'
p248
sa(dp249
g4
S'tag_Ele_pt > 35 && abs(tag_sc_eta) < 2.5  && abs(sc_eta)<2.5 && tag_Ele_trigMVA > 0.90 && sqrt( 2*event_met_pfmet*tag_Ele_pt*(1-cos(event_met_pfphi-tag_Ele_phi))) < 60 && sc_et > 20 && sc_eta >= 1.566000 && sc_eta < 2.000000 && sc_et >= 75.000000 && sc_et < 100.000000'
p250
sg6
S'bin34_sc_eta_1p57To2p00_sc_et_75p00To100p00'
p251
sg8
(dp252
g10
(dp253
g12
I100
sg13
I75
ssg14
(dp254
g12
F2.0
sg13
F1.566
sssg16
S'; 1.566 < sc_eta < 2.000; 75.000 < sc_et < 100.000'
p255
sa(dp256
g4
S'tag_Ele_pt > 35 && abs(tag_sc_eta) < 2.5  && abs(sc_eta)<2.5 && tag_Ele_trigMVA > 0.90 && sqrt( 2*event_met_pfmet*tag_Ele_pt*(1-cos(event_met_pfphi-tag_Ele_phi))) < 60 && sc_et > 20 && sc_eta >= 2.000000 && sc_eta < 2.500000 && sc_et >= 75.000000 && sc_et < 100.000000'
p257
sg6
S'bin35_sc_eta_2p00To2p50_sc_et_75p00To100p00'
p258
sg8
(dp259
g10
(dp260
g12
I100
sg13
I75
ssg14
(dp261
g12
F2.5
sg13
F2.0
sssg16
S'; 2.000 < sc_eta < 2.500; 75.000 < sc_et < 100.000'
p262
sa(dp263
g4
S'tag_Ele_pt > 35 && abs(tag_sc_eta) < 2.5  && abs(sc_eta)<2.5 && tag_Ele_trigMVA > 0.90 && sqrt( 2*event_met_pfmet*tag_Ele_pt*(1-cos(event_met_pfphi-tag_Ele_phi))) < 60 && sc_et > 20 && sc_eta >= -2.500000 && sc_eta < -2.000000 && sc_et >= 100.000000 && sc_et < 500.000000'
p264
sg6
S'bin36_sc_eta_m2p50Tom2p00_sc_et_100p00To500p00'
p265
sg8
(dp266
g10
(dp267
g12
I500
sg13
I100
ssg14
(dp268
g12
F-2.0
sg13
F-2.5
sssg16
S'; -2.500 < sc_eta < -2.000; 100.000 < sc_et < 500.000'
p269
sa(dp270
g4
S'tag_Ele_pt > 35 && abs(tag_sc_eta) < 2.5  && abs(sc_eta)<2.5 && tag_Ele_trigMVA > 0.90 && sqrt( 2*event_met_pfmet*tag_Ele_pt*(1-cos(event_met_pfphi-tag_Ele_phi))) < 60 && sc_et > 20 && sc_eta >= -2.000000 && sc_eta < -1.566000 && sc_et >= 100.000000 && sc_et < 500.000000'
p271
sg6
S'bin37_sc_eta_m2p00Tom1p57_sc_et_100p00To500p00'
p272
sg8
(dp273
g10
(dp274
g12
I500
sg13
I100
ssg14
(dp275
g12
F-1.566
sg13
F-2.0
sssg16
S'; -2.000 < sc_eta < -1.566; 100.000 < sc_et < 500.000'
p276
sa(dp277
g4
S'tag_Ele_pt > 35 && abs(tag_sc_eta) < 2.5  && abs(sc_eta)<2.5 && tag_Ele_trigMVA > 0.90 && sqrt( 2*event_met_pfmet*tag_Ele_pt*(1-cos(event_met_pfphi-tag_Ele_phi))) < 60 && sc_et > 20 && sc_eta >= -1.566000 && sc_eta < -1.444000 && sc_et >= 100.000000 && sc_et < 500.000000'
p278
sg6
S'bin38_sc_eta_m1p57Tom1p44_sc_et_100p00To500p00'
p279
sg8
(dp280
g10
(dp281
g12
I500
sg13
I100
ssg14
(dp282
g12
F-1.444
sg13
F-1.566
sssg16
S'; -1.566 < sc_eta < -1.444; 100.000 < sc_et < 500.000'
p283
sa(dp284
g4
S'tag_Ele_pt > 35 && abs(tag_sc_eta) < 2.5  && abs(sc_eta)<2.5 && tag_Ele_trigMVA > 0.90 && sqrt( 2*event_met_pfmet*tag_Ele_pt*(1-cos(event_met_pfphi-tag_Ele_phi))) < 60 && sc_et > 20 && sc_eta >= -1.444000 && sc_eta < -1.000000 && sc_et >= 100.000000 && sc_et < 500.000000'
p285
sg6
S'bin39_sc_eta_m1p44Tom1p00_sc_et_100p00To500p00'
p286
sg8
(dp287
g10
(dp288
g12
I500
sg13
I100
ssg14
(dp289
g12
F-1.0
sg13
F-1.444
sssg16
S'; -1.444 < sc_eta < -1.000; 100.000 < sc_et < 500.000'
p290
sa(dp291
g4
S'tag_Ele_pt > 35 && abs(tag_sc_eta) < 2.5  && abs(sc_eta)<2.5 && tag_Ele_trigMVA > 0.90 && sqrt( 2*event_met_pfmet*tag_Ele_pt*(1-cos(event_met_pfphi-tag_Ele_phi))) < 60 && sc_et > 20 && sc_eta >= -1.000000 && sc_eta < -0.500000 && sc_et >= 100.000000 && sc_et < 500.000000'
p292
sg6
S'bin40_sc_eta_m1p00Tom0p50_sc_et_100p00To500p00'
p293
sg8
(dp294
g10
(dp295
g12
I500
sg13
I100
ssg14
(dp296
g12
F-0.5
sg13
F-1.0
sssg16
S'; -1.000 < sc_eta < -0.500; 100.000 < sc_et < 500.000'
p297
sa(dp298
g4
S'tag_Ele_pt > 35 && abs(tag_sc_eta) < 2.5  && abs(sc_eta)<2.5 && tag_Ele_trigMVA > 0.90 && sqrt( 2*event_met_pfmet*tag_Ele_pt*(1-cos(event_met_pfphi-tag_Ele_phi))) < 60 && sc_et > 20 && sc_eta >= -0.500000 && sc_eta < 0.000000 && sc_et >= 100.000000 && sc_et < 500.000000'
p299
sg6
S'bin41_sc_eta_m0p50To0p00_sc_et_100p00To500p00'
p300
sg8
(dp301
g10
(dp302
g12
I500
sg13
I100
ssg14
(dp303
g12
F0.0
sg13
F-0.5
sssg16
S'; -0.500 < sc_eta < 0.000; 100.000 < sc_et < 500.000'
p304
sa(dp305
g4
S'tag_Ele_pt > 35 && abs(tag_sc_eta) < 2.5  && abs(sc_eta)<2.5 && tag_Ele_trigMVA > 0.90 && sqrt( 2*event_met_pfmet*tag_Ele_pt*(1-cos(event_met_pfphi-tag_Ele_phi))) < 60 && sc_et > 20 && sc_eta >= 0.000000 && sc_eta < 0.500000 && sc_et >= 100.000000 && sc_et < 500.000000'
p306
sg6
S'bin42_sc_eta_0p00To0p50_sc_et_100p00To500p00'
p307
sg8
(dp308
g10
(dp309
g12
I500
sg13
I100
ssg14
(dp310
g12
F0.5
sg13
F0.0
sssg16
S'; 0.000 < sc_eta < 0.500; 100.000 < sc_et < 500.000'
p311
sa(dp312
g4
S'tag_Ele_pt > 35 && abs(tag_sc_eta) < 2.5  && abs(sc_eta)<2.5 && tag_Ele_trigMVA > 0.90 && sqrt( 2*event_met_pfmet*tag_Ele_pt*(1-cos(event_met_pfphi-tag_Ele_phi))) < 60 && sc_et > 20 && sc_eta >= 0.500000 && sc_eta < 1.000000 && sc_et >= 100.000000 && sc_et < 500.000000'
p313
sg6
S'bin43_sc_eta_0p50To1p00_sc_et_100p00To500p00'
p314
sg8
(dp315
g10
(dp316
g12
I500
sg13
I100
ssg14
(dp317
g12
F1.0
sg13
F0.5
sssg16
S'; 0.500 < sc_eta < 1.000; 100.000 < sc_et < 500.000'
p318
sa(dp319
g4
S'tag_Ele_pt > 35 && abs(tag_sc_eta) < 2.5  && abs(sc_eta)<2.5 && tag_Ele_trigMVA > 0.90 && sqrt( 2*event_met_pfmet*tag_Ele_pt*(1-cos(event_met_pfphi-tag_Ele_phi))) < 60 && sc_et > 20 && sc_eta >= 1.000000 && sc_eta < 1.444000 && sc_et >= 100.000000 && sc_et < 500.000000'
p320
sg6
S'bin44_sc_eta_1p00To1p44_sc_et_100p00To500p00'
p321
sg8
(dp322
g10
(dp323
g12
I500
sg13
I100
ssg14
(dp324
g12
F1.444
sg13
F1.0
sssg16
S'; 1.000 < sc_eta < 1.444; 100.000 < sc_et < 500.000'
p325
sa(dp326
g4
S'tag_Ele_pt > 35 && abs(tag_sc_eta) < 2.5  && abs(sc_eta)<2.5 && tag_Ele_trigMVA > 0.90 && sqrt( 2*event_met_pfmet*tag_Ele_pt*(1-cos(event_met_pfphi-tag_Ele_phi))) < 60 && sc_et > 20 && sc_eta >= 1.444000 && sc_eta < 1.566000 && sc_et >= 100.000000 && sc_et < 500.000000'
p327
sg6
S'bin45_sc_eta_1p44To1p57_sc_et_100p00To500p00'
p328
sg8
(dp329
g10
(dp330
g12
I500
sg13
I100
ssg14
(dp331
g12
F1.566
sg13
F1.444
sssg16
S'; 1.444 < sc_eta < 1.566; 100.000 < sc_et < 500.000'
p332
sa(dp333
g4
S'tag_Ele_pt > 35 && abs(tag_sc_eta) < 2.5  && abs(sc_eta)<2.5 && tag_Ele_trigMVA > 0.90 && sqrt( 2*event_met_pfmet*tag_Ele_pt*(1-cos(event_met_pfphi-tag_Ele_phi))) < 60 && sc_et > 20 && sc_eta >= 1.566000 && sc_eta < 2.000000 && sc_et >= 100.000000 && sc_et < 500.000000'
p334
sg6
S'bin46_sc_eta_1p57To2p00_sc_et_100p00To500p00'
p335
sg8
(dp336
g10
(dp337
g12
I500
sg13
I100
ssg14
(dp338
g12
F2.0
sg13
F1.566
sssg16
S'; 1.566 < sc_eta < 2.000; 100.000 < sc_et < 500.000'
p339
sa(dp340
g4
S'tag_Ele_pt > 35 && abs(tag_sc_eta) < 2.5  && abs(sc_eta)<2.5 && tag_Ele_trigMVA > 0.90 && sqrt( 2*event_met_pfmet*tag_Ele_pt*(1-cos(event_met_pfphi-tag_Ele_phi))) < 60 && sc_et > 20 && sc_eta >= 2.000000 && sc_eta < 2.500000 && sc_et >= 100.000000 && sc_et < 500.000000'
p341
sg6
S'bin47_sc_eta_2p00To2p50_sc_et_100p00To500p00'
p342
sg8
(dp343
g10
(dp344
g12
I500
sg13
I100
ssg14
(dp345
g12
F2.5
sg13
F2.0
sssg16
S'; 2.000 < sc_eta < 2.500; 100.000 < sc_et < 500.000'
p346
sasg8
(lp347
g14
ag10
as.