(dp0
S'bins'
p1
(lp2
(dp3
S'cut'
p4
S'tag_Ele_pt > 35 && abs(tag_sc_eta) < 2.5  && abs(sc_eta)<2.5 && tag_Ele_trigMVA > 0.90 && sqrt( 2*event_met_pfmet*tag_Ele_pt*(1-cos(event_met_pfphi-tag_Ele_phi))) < 60 && sc_et > 20 && mc_probe_eta >= -2.500000 && mc_probe_eta < -1.479000 && mc_probe_phi >= -3.500000 && mc_probe_phi < -2.500000'
p5
sS'name'
p6
S'bin00_mc_probe_eta_m2p50Tom1p48_mc_probe_phi_m3p50Tom2p50'
p7
sS'vars'
p8
(dp9
S'mc_probe_eta'
p10
(dp11
S'max'
p12
F-1.479
sS'min'
p13
F-2.5
ssS'mc_probe_phi'
p14
(dp15
g12
F-2.5
sg13
F-3.5
sssS'title'
p16
S'; -2.500 < mc_probe_eta < -1.479; -3.500 < mc_probe_phi < -2.500'
p17
sa(dp18
g4
S'tag_Ele_pt > 35 && abs(tag_sc_eta) < 2.5  && abs(sc_eta)<2.5 && tag_Ele_trigMVA > 0.90 && sqrt( 2*event_met_pfmet*tag_Ele_pt*(1-cos(event_met_pfphi-tag_Ele_phi))) < 60 && sc_et > 20 && mc_probe_eta >= -1.479000 && mc_probe_eta < 0.000000 && mc_probe_phi >= -3.500000 && mc_probe_phi < -2.500000'
p19
sg6
S'bin01_mc_probe_eta_m1p48To0p00_mc_probe_phi_m3p50Tom2p50'
p20
sg8
(dp21
g10
(dp22
g12
F0.0
sg13
F-1.479
ssg14
(dp23
g12
F-2.5
sg13
F-3.5
sssg16
S'; -1.479 < mc_probe_eta < 0.000; -3.500 < mc_probe_phi < -2.500'
p24
sa(dp25
g4
S'tag_Ele_pt > 35 && abs(tag_sc_eta) < 2.5  && abs(sc_eta)<2.5 && tag_Ele_trigMVA > 0.90 && sqrt( 2*event_met_pfmet*tag_Ele_pt*(1-cos(event_met_pfphi-tag_Ele_phi))) < 60 && sc_et > 20 && mc_probe_eta >= 0.000000 && mc_probe_eta < 1.479000 && mc_probe_phi >= -3.500000 && mc_probe_phi < -2.500000'
p26
sg6
S'bin02_mc_probe_eta_0p00To1p48_mc_probe_phi_m3p50Tom2p50'
p27
sg8
(dp28
g10
(dp29
g12
F1.479
sg13
F0.0
ssg14
(dp30
g12
F-2.5
sg13
F-3.5
sssg16
S'; 0.000 < mc_probe_eta < 1.479; -3.500 < mc_probe_phi < -2.500'
p31
sa(dp32
g4
S'tag_Ele_pt > 35 && abs(tag_sc_eta) < 2.5  && abs(sc_eta)<2.5 && tag_Ele_trigMVA > 0.90 && sqrt( 2*event_met_pfmet*tag_Ele_pt*(1-cos(event_met_pfphi-tag_Ele_phi))) < 60 && sc_et > 20 && mc_probe_eta >= 1.479000 && mc_probe_eta < 2.500000 && mc_probe_phi >= -3.500000 && mc_probe_phi < -2.500000'
p33
sg6
S'bin03_mc_probe_eta_1p48To2p50_mc_probe_phi_m3p50Tom2p50'
p34
sg8
(dp35
g10
(dp36
g12
F2.5
sg13
F1.479
ssg14
(dp37
g12
F-2.5
sg13
F-3.5
sssg16
S'; 1.479 < mc_probe_eta < 2.500; -3.500 < mc_probe_phi < -2.500'
p38
sa(dp39
g4
S'tag_Ele_pt > 35 && abs(tag_sc_eta) < 2.5  && abs(sc_eta)<2.5 && tag_Ele_trigMVA > 0.90 && sqrt( 2*event_met_pfmet*tag_Ele_pt*(1-cos(event_met_pfphi-tag_Ele_phi))) < 60 && sc_et > 20 && mc_probe_eta >= -2.500000 && mc_probe_eta < -1.479000 && mc_probe_phi >= -2.500000 && mc_probe_phi < -1.500000'
p40
sg6
S'bin04_mc_probe_eta_m2p50Tom1p48_mc_probe_phi_m2p50Tom1p50'
p41
sg8
(dp42
g10
(dp43
g12
F-1.479
sg13
F-2.5
ssg14
(dp44
g12
F-1.5
sg13
F-2.5
sssg16
S'; -2.500 < mc_probe_eta < -1.479; -2.500 < mc_probe_phi < -1.500'
p45
sa(dp46
g4
S'tag_Ele_pt > 35 && abs(tag_sc_eta) < 2.5  && abs(sc_eta)<2.5 && tag_Ele_trigMVA > 0.90 && sqrt( 2*event_met_pfmet*tag_Ele_pt*(1-cos(event_met_pfphi-tag_Ele_phi))) < 60 && sc_et > 20 && mc_probe_eta >= -1.479000 && mc_probe_eta < 0.000000 && mc_probe_phi >= -2.500000 && mc_probe_phi < -1.500000'
p47
sg6
S'bin05_mc_probe_eta_m1p48To0p00_mc_probe_phi_m2p50Tom1p50'
p48
sg8
(dp49
g10
(dp50
g12
F0.0
sg13
F-1.479
ssg14
(dp51
g12
F-1.5
sg13
F-2.5
sssg16
S'; -1.479 < mc_probe_eta < 0.000; -2.500 < mc_probe_phi < -1.500'
p52
sa(dp53
g4
S'tag_Ele_pt > 35 && abs(tag_sc_eta) < 2.5  && abs(sc_eta)<2.5 && tag_Ele_trigMVA > 0.90 && sqrt( 2*event_met_pfmet*tag_Ele_pt*(1-cos(event_met_pfphi-tag_Ele_phi))) < 60 && sc_et > 20 && mc_probe_eta >= 0.000000 && mc_probe_eta < 1.479000 && mc_probe_phi >= -2.500000 && mc_probe_phi < -1.500000'
p54
sg6
S'bin06_mc_probe_eta_0p00To1p48_mc_probe_phi_m2p50Tom1p50'
p55
sg8
(dp56
g10
(dp57
g12
F1.479
sg13
F0.0
ssg14
(dp58
g12
F-1.5
sg13
F-2.5
sssg16
S'; 0.000 < mc_probe_eta < 1.479; -2.500 < mc_probe_phi < -1.500'
p59
sa(dp60
g4
S'tag_Ele_pt > 35 && abs(tag_sc_eta) < 2.5  && abs(sc_eta)<2.5 && tag_Ele_trigMVA > 0.90 && sqrt( 2*event_met_pfmet*tag_Ele_pt*(1-cos(event_met_pfphi-tag_Ele_phi))) < 60 && sc_et > 20 && mc_probe_eta >= 1.479000 && mc_probe_eta < 2.500000 && mc_probe_phi >= -2.500000 && mc_probe_phi < -1.500000'
p61
sg6
S'bin07_mc_probe_eta_1p48To2p50_mc_probe_phi_m2p50Tom1p50'
p62
sg8
(dp63
g10
(dp64
g12
F2.5
sg13
F1.479
ssg14
(dp65
g12
F-1.5
sg13
F-2.5
sssg16
S'; 1.479 < mc_probe_eta < 2.500; -2.500 < mc_probe_phi < -1.500'
p66
sa(dp67
g4
S'tag_Ele_pt > 35 && abs(tag_sc_eta) < 2.5  && abs(sc_eta)<2.5 && tag_Ele_trigMVA > 0.90 && sqrt( 2*event_met_pfmet*tag_Ele_pt*(1-cos(event_met_pfphi-tag_Ele_phi))) < 60 && sc_et > 20 && mc_probe_eta >= -2.500000 && mc_probe_eta < -1.479000 && mc_probe_phi >= -1.500000 && mc_probe_phi < -0.500000'
p68
sg6
S'bin08_mc_probe_eta_m2p50Tom1p48_mc_probe_phi_m1p50Tom0p50'
p69
sg8
(dp70
g10
(dp71
g12
F-1.479
sg13
F-2.5
ssg14
(dp72
g12
F-0.5
sg13
F-1.5
sssg16
S'; -2.500 < mc_probe_eta < -1.479; -1.500 < mc_probe_phi < -0.500'
p73
sa(dp74
g4
S'tag_Ele_pt > 35 && abs(tag_sc_eta) < 2.5  && abs(sc_eta)<2.5 && tag_Ele_trigMVA > 0.90 && sqrt( 2*event_met_pfmet*tag_Ele_pt*(1-cos(event_met_pfphi-tag_Ele_phi))) < 60 && sc_et > 20 && mc_probe_eta >= -1.479000 && mc_probe_eta < 0.000000 && mc_probe_phi >= -1.500000 && mc_probe_phi < -0.500000'
p75
sg6
S'bin09_mc_probe_eta_m1p48To0p00_mc_probe_phi_m1p50Tom0p50'
p76
sg8
(dp77
g10
(dp78
g12
F0.0
sg13
F-1.479
ssg14
(dp79
g12
F-0.5
sg13
F-1.5
sssg16
S'; -1.479 < mc_probe_eta < 0.000; -1.500 < mc_probe_phi < -0.500'
p80
sa(dp81
g4
S'tag_Ele_pt > 35 && abs(tag_sc_eta) < 2.5  && abs(sc_eta)<2.5 && tag_Ele_trigMVA > 0.90 && sqrt( 2*event_met_pfmet*tag_Ele_pt*(1-cos(event_met_pfphi-tag_Ele_phi))) < 60 && sc_et > 20 && mc_probe_eta >= 0.000000 && mc_probe_eta < 1.479000 && mc_probe_phi >= -1.500000 && mc_probe_phi < -0.500000'
p82
sg6
S'bin10_mc_probe_eta_0p00To1p48_mc_probe_phi_m1p50Tom0p50'
p83
sg8
(dp84
g10
(dp85
g12
F1.479
sg13
F0.0
ssg14
(dp86
g12
F-0.5
sg13
F-1.5
sssg16
S'; 0.000 < mc_probe_eta < 1.479; -1.500 < mc_probe_phi < -0.500'
p87
sa(dp88
g4
S'tag_Ele_pt > 35 && abs(tag_sc_eta) < 2.5  && abs(sc_eta)<2.5 && tag_Ele_trigMVA > 0.90 && sqrt( 2*event_met_pfmet*tag_Ele_pt*(1-cos(event_met_pfphi-tag_Ele_phi))) < 60 && sc_et > 20 && mc_probe_eta >= 1.479000 && mc_probe_eta < 2.500000 && mc_probe_phi >= -1.500000 && mc_probe_phi < -0.500000'
p89
sg6
S'bin11_mc_probe_eta_1p48To2p50_mc_probe_phi_m1p50Tom0p50'
p90
sg8
(dp91
g10
(dp92
g12
F2.5
sg13
F1.479
ssg14
(dp93
g12
F-0.5
sg13
F-1.5
sssg16
S'; 1.479 < mc_probe_eta < 2.500; -1.500 < mc_probe_phi < -0.500'
p94
sa(dp95
g4
S'tag_Ele_pt > 35 && abs(tag_sc_eta) < 2.5  && abs(sc_eta)<2.5 && tag_Ele_trigMVA > 0.90 && sqrt( 2*event_met_pfmet*tag_Ele_pt*(1-cos(event_met_pfphi-tag_Ele_phi))) < 60 && sc_et > 20 && mc_probe_eta >= -2.500000 && mc_probe_eta < -1.479000 && mc_probe_phi >= -0.500000 && mc_probe_phi < 0.000000'
p96
sg6
S'bin12_mc_probe_eta_m2p50Tom1p48_mc_probe_phi_m0p50To0p00'
p97
sg8
(dp98
g10
(dp99
g12
F-1.479
sg13
F-2.5
ssg14
(dp100
g12
I0
sg13
F-0.5
sssg16
S'; -2.500 < mc_probe_eta < -1.479; -0.500 < mc_probe_phi < 0.000'
p101
sa(dp102
g4
S'tag_Ele_pt > 35 && abs(tag_sc_eta) < 2.5  && abs(sc_eta)<2.5 && tag_Ele_trigMVA > 0.90 && sqrt( 2*event_met_pfmet*tag_Ele_pt*(1-cos(event_met_pfphi-tag_Ele_phi))) < 60 && sc_et > 20 && mc_probe_eta >= -1.479000 && mc_probe_eta < 0.000000 && mc_probe_phi >= -0.500000 && mc_probe_phi < 0.000000'
p103
sg6
S'bin13_mc_probe_eta_m1p48To0p00_mc_probe_phi_m0p50To0p00'
p104
sg8
(dp105
g10
(dp106
g12
F0.0
sg13
F-1.479
ssg14
(dp107
g12
I0
sg13
F-0.5
sssg16
S'; -1.479 < mc_probe_eta < 0.000; -0.500 < mc_probe_phi < 0.000'
p108
sa(dp109
g4
S'tag_Ele_pt > 35 && abs(tag_sc_eta) < 2.5  && abs(sc_eta)<2.5 && tag_Ele_trigMVA > 0.90 && sqrt( 2*event_met_pfmet*tag_Ele_pt*(1-cos(event_met_pfphi-tag_Ele_phi))) < 60 && sc_et > 20 && mc_probe_eta >= 0.000000 && mc_probe_eta < 1.479000 && mc_probe_phi >= -0.500000 && mc_probe_phi < 0.000000'
p110
sg6
S'bin14_mc_probe_eta_0p00To1p48_mc_probe_phi_m0p50To0p00'
p111
sg8
(dp112
g10
(dp113
g12
F1.479
sg13
F0.0
ssg14
(dp114
g12
I0
sg13
F-0.5
sssg16
S'; 0.000 < mc_probe_eta < 1.479; -0.500 < mc_probe_phi < 0.000'
p115
sa(dp116
g4
S'tag_Ele_pt > 35 && abs(tag_sc_eta) < 2.5  && abs(sc_eta)<2.5 && tag_Ele_trigMVA > 0.90 && sqrt( 2*event_met_pfmet*tag_Ele_pt*(1-cos(event_met_pfphi-tag_Ele_phi))) < 60 && sc_et > 20 && mc_probe_eta >= 1.479000 && mc_probe_eta < 2.500000 && mc_probe_phi >= -0.500000 && mc_probe_phi < 0.000000'
p117
sg6
S'bin15_mc_probe_eta_1p48To2p50_mc_probe_phi_m0p50To0p00'
p118
sg8
(dp119
g10
(dp120
g12
F2.5
sg13
F1.479
ssg14
(dp121
g12
I0
sg13
F-0.5
sssg16
S'; 1.479 < mc_probe_eta < 2.500; -0.500 < mc_probe_phi < 0.000'
p122
sa(dp123
g4
S'tag_Ele_pt > 35 && abs(tag_sc_eta) < 2.5  && abs(sc_eta)<2.5 && tag_Ele_trigMVA > 0.90 && sqrt( 2*event_met_pfmet*tag_Ele_pt*(1-cos(event_met_pfphi-tag_Ele_phi))) < 60 && sc_et > 20 && mc_probe_eta >= -2.500000 && mc_probe_eta < -1.479000 && mc_probe_phi >= 0.000000 && mc_probe_phi < 0.500000'
p124
sg6
S'bin16_mc_probe_eta_m2p50Tom1p48_mc_probe_phi_0p00To0p50'
p125
sg8
(dp126
g10
(dp127
g12
F-1.479
sg13
F-2.5
ssg14
(dp128
g12
F0.5
sg13
I0
sssg16
S'; -2.500 < mc_probe_eta < -1.479; 0.000 < mc_probe_phi < 0.500'
p129
sa(dp130
g4
S'tag_Ele_pt > 35 && abs(tag_sc_eta) < 2.5  && abs(sc_eta)<2.5 && tag_Ele_trigMVA > 0.90 && sqrt( 2*event_met_pfmet*tag_Ele_pt*(1-cos(event_met_pfphi-tag_Ele_phi))) < 60 && sc_et > 20 && mc_probe_eta >= -1.479000 && mc_probe_eta < 0.000000 && mc_probe_phi >= 0.000000 && mc_probe_phi < 0.500000'
p131
sg6
S'bin17_mc_probe_eta_m1p48To0p00_mc_probe_phi_0p00To0p50'
p132
sg8
(dp133
g10
(dp134
g12
F0.0
sg13
F-1.479
ssg14
(dp135
g12
F0.5
sg13
I0
sssg16
S'; -1.479 < mc_probe_eta < 0.000; 0.000 < mc_probe_phi < 0.500'
p136
sa(dp137
g4
S'tag_Ele_pt > 35 && abs(tag_sc_eta) < 2.5  && abs(sc_eta)<2.5 && tag_Ele_trigMVA > 0.90 && sqrt( 2*event_met_pfmet*tag_Ele_pt*(1-cos(event_met_pfphi-tag_Ele_phi))) < 60 && sc_et > 20 && mc_probe_eta >= 0.000000 && mc_probe_eta < 1.479000 && mc_probe_phi >= 0.000000 && mc_probe_phi < 0.500000'
p138
sg6
S'bin18_mc_probe_eta_0p00To1p48_mc_probe_phi_0p00To0p50'
p139
sg8
(dp140
g10
(dp141
g12
F1.479
sg13
F0.0
ssg14
(dp142
g12
F0.5
sg13
I0
sssg16
S'; 0.000 < mc_probe_eta < 1.479; 0.000 < mc_probe_phi < 0.500'
p143
sa(dp144
g4
S'tag_Ele_pt > 35 && abs(tag_sc_eta) < 2.5  && abs(sc_eta)<2.5 && tag_Ele_trigMVA > 0.90 && sqrt( 2*event_met_pfmet*tag_Ele_pt*(1-cos(event_met_pfphi-tag_Ele_phi))) < 60 && sc_et > 20 && mc_probe_eta >= 1.479000 && mc_probe_eta < 2.500000 && mc_probe_phi >= 0.000000 && mc_probe_phi < 0.500000'
p145
sg6
S'bin19_mc_probe_eta_1p48To2p50_mc_probe_phi_0p00To0p50'
p146
sg8
(dp147
g10
(dp148
g12
F2.5
sg13
F1.479
ssg14
(dp149
g12
F0.5
sg13
I0
sssg16
S'; 1.479 < mc_probe_eta < 2.500; 0.000 < mc_probe_phi < 0.500'
p150
sa(dp151
g4
S'tag_Ele_pt > 35 && abs(tag_sc_eta) < 2.5  && abs(sc_eta)<2.5 && tag_Ele_trigMVA > 0.90 && sqrt( 2*event_met_pfmet*tag_Ele_pt*(1-cos(event_met_pfphi-tag_Ele_phi))) < 60 && sc_et > 20 && mc_probe_eta >= -2.500000 && mc_probe_eta < -1.479000 && mc_probe_phi >= 0.500000 && mc_probe_phi < 1.500000'
p152
sg6
S'bin20_mc_probe_eta_m2p50Tom1p48_mc_probe_phi_0p50To1p50'
p153
sg8
(dp154
g10
(dp155
g12
F-1.479
sg13
F-2.5
ssg14
(dp156
g12
F1.5
sg13
F0.5
sssg16
S'; -2.500 < mc_probe_eta < -1.479; 0.500 < mc_probe_phi < 1.500'
p157
sa(dp158
g4
S'tag_Ele_pt > 35 && abs(tag_sc_eta) < 2.5  && abs(sc_eta)<2.5 && tag_Ele_trigMVA > 0.90 && sqrt( 2*event_met_pfmet*tag_Ele_pt*(1-cos(event_met_pfphi-tag_Ele_phi))) < 60 && sc_et > 20 && mc_probe_eta >= -1.479000 && mc_probe_eta < 0.000000 && mc_probe_phi >= 0.500000 && mc_probe_phi < 1.500000'
p159
sg6
S'bin21_mc_probe_eta_m1p48To0p00_mc_probe_phi_0p50To1p50'
p160
sg8
(dp161
g10
(dp162
g12
F0.0
sg13
F-1.479
ssg14
(dp163
g12
F1.5
sg13
F0.5
sssg16
S'; -1.479 < mc_probe_eta < 0.000; 0.500 < mc_probe_phi < 1.500'
p164
sa(dp165
g4
S'tag_Ele_pt > 35 && abs(tag_sc_eta) < 2.5  && abs(sc_eta)<2.5 && tag_Ele_trigMVA > 0.90 && sqrt( 2*event_met_pfmet*tag_Ele_pt*(1-cos(event_met_pfphi-tag_Ele_phi))) < 60 && sc_et > 20 && mc_probe_eta >= 0.000000 && mc_probe_eta < 1.479000 && mc_probe_phi >= 0.500000 && mc_probe_phi < 1.500000'
p166
sg6
S'bin22_mc_probe_eta_0p00To1p48_mc_probe_phi_0p50To1p50'
p167
sg8
(dp168
g10
(dp169
g12
F1.479
sg13
F0.0
ssg14
(dp170
g12
F1.5
sg13
F0.5
sssg16
S'; 0.000 < mc_probe_eta < 1.479; 0.500 < mc_probe_phi < 1.500'
p171
sa(dp172
g4
S'tag_Ele_pt > 35 && abs(tag_sc_eta) < 2.5  && abs(sc_eta)<2.5 && tag_Ele_trigMVA > 0.90 && sqrt( 2*event_met_pfmet*tag_Ele_pt*(1-cos(event_met_pfphi-tag_Ele_phi))) < 60 && sc_et > 20 && mc_probe_eta >= 1.479000 && mc_probe_eta < 2.500000 && mc_probe_phi >= 0.500000 && mc_probe_phi < 1.500000'
p173
sg6
S'bin23_mc_probe_eta_1p48To2p50_mc_probe_phi_0p50To1p50'
p174
sg8
(dp175
g10
(dp176
g12
F2.5
sg13
F1.479
ssg14
(dp177
g12
F1.5
sg13
F0.5
sssg16
S'; 1.479 < mc_probe_eta < 2.500; 0.500 < mc_probe_phi < 1.500'
p178
sa(dp179
g4
S'tag_Ele_pt > 35 && abs(tag_sc_eta) < 2.5  && abs(sc_eta)<2.5 && tag_Ele_trigMVA > 0.90 && sqrt( 2*event_met_pfmet*tag_Ele_pt*(1-cos(event_met_pfphi-tag_Ele_phi))) < 60 && sc_et > 20 && mc_probe_eta >= -2.500000 && mc_probe_eta < -1.479000 && mc_probe_phi >= 1.500000 && mc_probe_phi < 2.500000'
p180
sg6
S'bin24_mc_probe_eta_m2p50Tom1p48_mc_probe_phi_1p50To2p50'
p181
sg8
(dp182
g10
(dp183
g12
F-1.479
sg13
F-2.5
ssg14
(dp184
g12
F2.5
sg13
F1.5
sssg16
S'; -2.500 < mc_probe_eta < -1.479; 1.500 < mc_probe_phi < 2.500'
p185
sa(dp186
g4
S'tag_Ele_pt > 35 && abs(tag_sc_eta) < 2.5  && abs(sc_eta)<2.5 && tag_Ele_trigMVA > 0.90 && sqrt( 2*event_met_pfmet*tag_Ele_pt*(1-cos(event_met_pfphi-tag_Ele_phi))) < 60 && sc_et > 20 && mc_probe_eta >= -1.479000 && mc_probe_eta < 0.000000 && mc_probe_phi >= 1.500000 && mc_probe_phi < 2.500000'
p187
sg6
S'bin25_mc_probe_eta_m1p48To0p00_mc_probe_phi_1p50To2p50'
p188
sg8
(dp189
g10
(dp190
g12
F0.0
sg13
F-1.479
ssg14
(dp191
g12
F2.5
sg13
F1.5
sssg16
S'; -1.479 < mc_probe_eta < 0.000; 1.500 < mc_probe_phi < 2.500'
p192
sa(dp193
g4
S'tag_Ele_pt > 35 && abs(tag_sc_eta) < 2.5  && abs(sc_eta)<2.5 && tag_Ele_trigMVA > 0.90 && sqrt( 2*event_met_pfmet*tag_Ele_pt*(1-cos(event_met_pfphi-tag_Ele_phi))) < 60 && sc_et > 20 && mc_probe_eta >= 0.000000 && mc_probe_eta < 1.479000 && mc_probe_phi >= 1.500000 && mc_probe_phi < 2.500000'
p194
sg6
S'bin26_mc_probe_eta_0p00To1p48_mc_probe_phi_1p50To2p50'
p195
sg8
(dp196
g10
(dp197
g12
F1.479
sg13
F0.0
ssg14
(dp198
g12
F2.5
sg13
F1.5
sssg16
S'; 0.000 < mc_probe_eta < 1.479; 1.500 < mc_probe_phi < 2.500'
p199
sa(dp200
g4
S'tag_Ele_pt > 35 && abs(tag_sc_eta) < 2.5  && abs(sc_eta)<2.5 && tag_Ele_trigMVA > 0.90 && sqrt( 2*event_met_pfmet*tag_Ele_pt*(1-cos(event_met_pfphi-tag_Ele_phi))) < 60 && sc_et > 20 && mc_probe_eta >= 1.479000 && mc_probe_eta < 2.500000 && mc_probe_phi >= 1.500000 && mc_probe_phi < 2.500000'
p201
sg6
S'bin27_mc_probe_eta_1p48To2p50_mc_probe_phi_1p50To2p50'
p202
sg8
(dp203
g10
(dp204
g12
F2.5
sg13
F1.479
ssg14
(dp205
g12
F2.5
sg13
F1.5
sssg16
S'; 1.479 < mc_probe_eta < 2.500; 1.500 < mc_probe_phi < 2.500'
p206
sa(dp207
g4
S'tag_Ele_pt > 35 && abs(tag_sc_eta) < 2.5  && abs(sc_eta)<2.5 && tag_Ele_trigMVA > 0.90 && sqrt( 2*event_met_pfmet*tag_Ele_pt*(1-cos(event_met_pfphi-tag_Ele_phi))) < 60 && sc_et > 20 && mc_probe_eta >= -2.500000 && mc_probe_eta < -1.479000 && mc_probe_phi >= 2.500000 && mc_probe_phi < 3.500000'
p208
sg6
S'bin28_mc_probe_eta_m2p50Tom1p48_mc_probe_phi_2p50To3p50'
p209
sg8
(dp210
g10
(dp211
g12
F-1.479
sg13
F-2.5
ssg14
(dp212
g12
F3.5
sg13
F2.5
sssg16
S'; -2.500 < mc_probe_eta < -1.479; 2.500 < mc_probe_phi < 3.500'
p213
sa(dp214
g4
S'tag_Ele_pt > 35 && abs(tag_sc_eta) < 2.5  && abs(sc_eta)<2.5 && tag_Ele_trigMVA > 0.90 && sqrt( 2*event_met_pfmet*tag_Ele_pt*(1-cos(event_met_pfphi-tag_Ele_phi))) < 60 && sc_et > 20 && mc_probe_eta >= -1.479000 && mc_probe_eta < 0.000000 && mc_probe_phi >= 2.500000 && mc_probe_phi < 3.500000'
p215
sg6
S'bin29_mc_probe_eta_m1p48To0p00_mc_probe_phi_2p50To3p50'
p216
sg8
(dp217
g10
(dp218
g12
F0.0
sg13
F-1.479
ssg14
(dp219
g12
F3.5
sg13
F2.5
sssg16
S'; -1.479 < mc_probe_eta < 0.000; 2.500 < mc_probe_phi < 3.500'
p220
sa(dp221
g4
S'tag_Ele_pt > 35 && abs(tag_sc_eta) < 2.5  && abs(sc_eta)<2.5 && tag_Ele_trigMVA > 0.90 && sqrt( 2*event_met_pfmet*tag_Ele_pt*(1-cos(event_met_pfphi-tag_Ele_phi))) < 60 && sc_et > 20 && mc_probe_eta >= 0.000000 && mc_probe_eta < 1.479000 && mc_probe_phi >= 2.500000 && mc_probe_phi < 3.500000'
p222
sg6
S'bin30_mc_probe_eta_0p00To1p48_mc_probe_phi_2p50To3p50'
p223
sg8
(dp224
g10
(dp225
g12
F1.479
sg13
F0.0
ssg14
(dp226
g12
F3.5
sg13
F2.5
sssg16
S'; 0.000 < mc_probe_eta < 1.479; 2.500 < mc_probe_phi < 3.500'
p227
sa(dp228
g4
S'tag_Ele_pt > 35 && abs(tag_sc_eta) < 2.5  && abs(sc_eta)<2.5 && tag_Ele_trigMVA > 0.90 && sqrt( 2*event_met_pfmet*tag_Ele_pt*(1-cos(event_met_pfphi-tag_Ele_phi))) < 60 && sc_et > 20 && mc_probe_eta >= 1.479000 && mc_probe_eta < 2.500000 && mc_probe_phi >= 2.500000 && mc_probe_phi < 3.500000'
p229
sg6
S'bin31_mc_probe_eta_1p48To2p50_mc_probe_phi_2p50To3p50'
p230
sg8
(dp231
g10
(dp232
g12
F2.5
sg13
F1.479
ssg14
(dp233
g12
F3.5
sg13
F2.5
sssg16
S'; 1.479 < mc_probe_eta < 2.500; 2.500 < mc_probe_phi < 3.500'
p234
sasg8
(lp235
g10
ag14
as.